target datalayout = "e-m:e-p270:32:32-p271:32:32-p272:64:64-i64:64-i128:128-f80:128-n8:16:32:64-S128"
target triple = "x86_64-pc-linux-gnu"

%struct.archive_read = type { %struct.archive, ptr, i32, i64, i64, %struct.archive_read_client, [16 x %struct.archive_read_filter_bidder], ptr, i32, i64, i32, i32, [16 x %struct.archive_format_descriptor], ptr, ptr, ptr, %struct.anon }
%struct.archive = type { i32, i32, ptr, i32, ptr, i32, i32, ptr, %struct.archive_string, ptr, i32, i32, ptr, ptr, i64, i64, i64, i8, i64 }
%struct.archive_string = type { ptr, i64, i64 }
%struct.archive_read_client = type { ptr, ptr, ptr, ptr, ptr, ptr, i32, i32, i64, ptr }
%struct.archive_read_filter_bidder = type { ptr, ptr, ptr }
%struct.archive_format_descriptor = type { ptr, ptr, ptr, ptr, ptr, ptr, ptr, ptr, ptr, ptr, ptr }
%struct.anon = type { ptr, ptr, i32, ptr, ptr }
%struct.ar = type { i64, i64, i64, i64, ptr, i64, i8 }

; Function Attrs: nounwind uwtable
define internal i32 @archive_read_format_ar_skip(ptr noundef %0) #0 {
  %2 = alloca i32, align 4
  %3 = alloca ptr, align 8
  %4 = alloca i64, align 8
  %5 = alloca ptr, align 8
  %6 = alloca i32, align 4
  store ptr %0, ptr %3, align 8, !tbaa !9
  call void @llvm.lifetime.start.p0(i64 8, ptr %4) #8
  call void @llvm.lifetime.start.p0(i64 8, ptr %5) #8
  %7 = load ptr, ptr %3, align 8, !tbaa !9
  %8 = getelementptr inbounds nuw %struct.archive_read, ptr %7, i32 0, i32 13
  %9 = load ptr, ptr %8, align 8, !tbaa !22
  %10 = getelementptr inbounds nuw %struct.archive_format_descriptor, ptr %9, i32 0, i32 0
  %11 = load ptr, ptr %10, align 8, !tbaa !36
  store ptr %11, ptr %5, align 8, !tbaa !13
  %12 = load ptr, ptr %3, align 8, !tbaa !9
  %13 = load ptr, ptr %5, align 8, !tbaa !13
  %14 = getelementptr inbounds nuw %struct.ar, ptr %13, i32 0, i32 0
  %15 = load i64, ptr %14, align 8, !tbaa !44
  %16 = load ptr, ptr %5, align 8, !tbaa !13
  %17 = getelementptr inbounds nuw %struct.ar, ptr %16, i32 0, i32 3
  %18 = load i64, ptr %17, align 8, !tbaa !46
  %19 = add nsw i64 %15, %18
  %20 = load ptr, ptr %5, align 8, !tbaa !13
  %21 = getelementptr inbounds nuw %struct.ar, ptr %20, i32 0, i32 1
  %22 = load i64, ptr %21, align 8, !tbaa !43
  %23 = add i64 %19, %22
  %24 = call i64 @__archive_read_consume(ptr noundef %12, i64 noundef %23)
  store i64 %24, ptr %4, align 8, !tbaa !40
  %25 = load i64, ptr %4, align 8, !tbaa !40
  %26 = icmp slt i64 %25, 0
  br i1 %26, label %27, label %28

27:                                               ; preds = %1
  store i32 -30, ptr %2, align 4
  store i32 1, ptr %6, align 4
  br label %35

28:                                               ; preds = %1
  %29 = load ptr, ptr %5, align 8, !tbaa !13
  %30 = getelementptr inbounds nuw %struct.ar, ptr %29, i32 0, i32 0
  store i64 0, ptr %30, align 8, !tbaa !44
  %31 = load ptr, ptr %5, align 8, !tbaa !13
  %32 = getelementptr inbounds nuw %struct.ar, ptr %31, i32 0, i32 1
  store i64 0, ptr %32, align 8, !tbaa !43
  %33 = load ptr, ptr %5, align 8, !tbaa !13
  %34 = getelementptr inbounds nuw %struct.ar, ptr %33, i32 0, i32 3
  store i64 0, ptr %34, align 8, !tbaa !46
  store i32 0, ptr %2, align 4
  store i32 1, ptr %6, align 4
  br label %35

35:                                               ; preds = %28, %27
  call void @llvm.lifetime.end.p0(i64 8, ptr %5) #8
  call void @llvm.lifetime.end.p0(i64 8, ptr %4) #8
  %36 = load i32, ptr %2, align 4
  ret i32 %36
}