; Function Attrs: nounwind uwtable
define internal range(i32 -30, 1) i32 @archive_read_format_ar_skip(ptr noundef %0) #0 {
  %2 = getelementptr inbounds nuw i8, ptr %0, i64 2072
  %3 = load ptr, ptr %2, align 8, !tbaa !4
  %4 = load ptr, ptr %3, align 8, !tbaa !25
  %5 = load i64, ptr %4, align 8, !tbaa !38
  %6 = getelementptr inbounds nuw i8, ptr %4, i64 24
  %7 = load i64, ptr %6, align 8, !tbaa !43
  %8 = add nsw i64 %7, %5
  %9 = getelementptr inbounds nuw i8, ptr %4, i64 8
  %10 = load i64, ptr %9, align 8, !tbaa !39
  %11 = add i64 %8, %10
  %12 = tail call i64 @__archive_read_consume(ptr noundef %0, i64 noundef %11) #13
  %13 = icmp slt i64 %12, 0
  br i1 %13, label %15, label %14

14:                                               ; preds = %1
  store i64 0, ptr %6, align 8, !tbaa !43
  tail call void @llvm.memset.p0.i64(ptr noundef nonnull align 8 dereferenceable(16) %4, i8 0, i64 16, i1 false)
  br label %15

15:                                               ; preds = %1, %14
  %.0 = phi i32 [ 0, %14 ], [ -30, %1 ]
  ret i32 %.0
}